target datalayout = "e-m:e-p270:32:32-p271:32:32-p272:64:64-i64:64-i128:128-f80:128-n8:16:32:64-S128"
target triple = "x86_64-pc-linux-gnu"

%struct.CType = type { i32, i32, i16, i16, %struct.GCRef }
%struct.GCRef = type { i64 }
%struct.CTState = type { ptr, i32, i32, ptr, ptr, ptr, %struct.CCallback, [128 x i16] }
%struct.CCallback = type { [8 x %union.FPRCBArg], [8 x i64], ptr, ptr, ptr, i32, i32, i32 }
%union.FPRCBArg = type { double }
%union.TValue = type { i64 }
%struct.GCcdata = type { %struct.GCRef, i8, i8, i16 }

; Function Attrs: alwaysinline nounwind uwtable
define internal i32 @ctype_check(ptr noundef %0, i32 noundef %1) #2 {
  %3 = alloca ptr, align 8
  %4 = alloca i32, align 4
  store ptr %0, ptr %3, align 8, !tbaa !4
  store i32 %1, ptr %4, align 4, !tbaa !11
  %5 = load i32, ptr %4, align 4, !tbaa !11
  ret i32 %5
}

; Function Attrs: alwaysinline nounwind uwtable
define internal ptr @ctype_get(ptr noundef %0, i32 noundef %1) #2 {
  %3 = alloca ptr, align 8
  %4 = alloca i32, align 4
  store ptr %0, ptr %3, align 8, !tbaa !4
  store i32 %1, ptr %4, align 4, !tbaa !11
  %5 = load ptr, ptr %3, align 8, !tbaa !4
  %6 = getelementptr inbounds nuw %struct.CTState, ptr %5, i32 0, i32 0
  %7 = load ptr, ptr %6, align 8, !tbaa !42
  %8 = load ptr, ptr %3, align 8, !tbaa !4
  %9 = load i32, ptr %4, align 4, !tbaa !11
  %10 = call i32 @ctype_check(ptr noundef %8, i32 noundef %9)
  %11 = zext i32 %10 to i64
  %12 = getelementptr inbounds nuw %struct.CType, ptr %7, i64 %11
  ret ptr %12
}

; Function Attrs: alwaysinline nounwind uwtable
define internal ptr @ctype_child(ptr noundef %0, ptr noundef %1) #2 {
  %3 = alloca ptr, align 8
  %4 = alloca ptr, align 8
  store ptr %0, ptr %3, align 8, !tbaa !4
  store ptr %1, ptr %4, align 8, !tbaa !9
  %5 = load ptr, ptr %3, align 8, !tbaa !4
  %6 = load ptr, ptr %4, align 8, !tbaa !9
  %7 = getelementptr inbounds nuw %struct.CType, ptr %6, i32 0, i32 0
  %8 = load i32, ptr %7, align 8, !tbaa !13
  %9 = and i32 %8, 65535
  %10 = call ptr @ctype_get(ptr noundef %5, i32 noundef %9)
  ret ptr %10
}

; Function Attrs: alwaysinline nounwind uwtable
define internal ptr @ctype_rawchild(ptr noundef %0, ptr noundef %1) #2 {
  %3 = alloca ptr, align 8
  %4 = alloca ptr, align 8
  store ptr %0, ptr %3, align 8, !tbaa !4
  store ptr %1, ptr %4, align 8, !tbaa !9
  br label %5

5:                                                ; preds = %9, %2
  %6 = load ptr, ptr %3, align 8, !tbaa !4
  %7 = load ptr, ptr %4, align 8, !tbaa !9
  %8 = call ptr @ctype_child(ptr noundef %6, ptr noundef %7)
  store ptr %8, ptr %4, align 8, !tbaa !9
  br label %9

9:                                                ; preds = %5
  %10 = load ptr, ptr %4, align 8, !tbaa !9
  %11 = getelementptr inbounds nuw %struct.CType, ptr %10, i32 0, i32 0
  %12 = load i32, ptr %11, align 8, !tbaa !13
  %13 = lshr i32 %12, 28
  %14 = icmp eq i32 %13, 8
  br i1 %14, label %5, label %15, !llvm.loop !64

15:                                               ; preds = %9
  %16 = load ptr, ptr %4, align 8, !tbaa !9
  ret ptr %16
}

; Function Attrs: nounwind uwtable
define internal void @cconv_struct_init(ptr noundef %0, ptr noundef %1, i32 noundef %2, ptr noundef %3, ptr noundef %4, i32 noundef %5) #0 {
  %7 = alloca ptr, align 8
  %8 = alloca ptr, align 8
  %9 = alloca i32, align 4
  %10 = alloca ptr, align 8
  %11 = alloca ptr, align 8
  %12 = alloca i32, align 4
  %13 = alloca i32, align 4
  store ptr %0, ptr %7, align 8, !tbaa !4
  store ptr %1, ptr %8, align 8, !tbaa !9
  store i32 %2, ptr %9, align 4, !tbaa !11
  store ptr %3, ptr %10, align 8, !tbaa !21
  store ptr %4, ptr %11, align 8, !tbaa !43
  store i32 %5, ptr %12, align 4, !tbaa !11
  call void @llvm.lifetime.start.p0(i64 4, ptr %13) #9
  store i32 0, ptr %13, align 4, !tbaa !11
  %14 = load ptr, ptr %10, align 8, !tbaa !21
  %15 = load i32, ptr %9, align 4, !tbaa !11
  %16 = zext i32 %15 to i64
  call void @llvm.memset.p0.i64(ptr align 1 %14, i8 0, i64 %16, i1 false)
  %17 = load ptr, ptr %7, align 8, !tbaa !4
  %18 = load ptr, ptr %8, align 8, !tbaa !9
  %19 = load ptr, ptr %10, align 8, !tbaa !21
  %20 = load ptr, ptr %11, align 8, !tbaa !43
  %21 = load i32, ptr %12, align 4, !tbaa !11
  call void @cconv_substruct_init(ptr noundef %17, ptr noundef %18, ptr noundef %19, ptr noundef %20, i32 noundef %21, ptr noundef %13)
  %22 = load i32, ptr %13, align 4, !tbaa !11
  %23 = load i32, ptr %12, align 4, !tbaa !11
  %24 = icmp ult i32 %22, %23
  br i1 %24, label %25, label %28

25:                                               ; preds = %6
  %26 = load ptr, ptr %7, align 8, !tbaa !4
  %27 = load ptr, ptr %8, align 8, !tbaa !9
  call void @cconv_err_initov(ptr noundef %26, ptr noundef %27) #10
  unreachable

28:                                               ; preds = %6
  call void @llvm.lifetime.end.p0(i64 4, ptr %13) #9
  ret void
}

; Function Attrs: nounwind uwtable
define internal void @cconv_array_init(ptr noundef %0, ptr noundef %1, i32 noundef %2, ptr noundef %3, ptr noundef %4, i32 noundef %5) #0 {
  %7 = alloca ptr, align 8
  %8 = alloca ptr, align 8
  %9 = alloca i32, align 4
  %10 = alloca ptr, align 8
  %11 = alloca ptr, align 8
  %12 = alloca i32, align 4
  %13 = alloca ptr, align 8
  %14 = alloca i32, align 4
  %15 = alloca i32, align 4
  %16 = alloca i32, align 4
  store ptr %0, ptr %7, align 8, !tbaa !4
  store ptr %1, ptr %8, align 8, !tbaa !9
  store i32 %2, ptr %9, align 4, !tbaa !11
  store ptr %3, ptr %10, align 8, !tbaa !21
  store ptr %4, ptr %11, align 8, !tbaa !43
  store i32 %5, ptr %12, align 4, !tbaa !11
  call void @llvm.lifetime.start.p0(i64 8, ptr %13) #9
  %17 = load ptr, ptr %7, align 8, !tbaa !4
  %18 = load ptr, ptr %8, align 8, !tbaa !9
  %19 = call ptr @ctype_rawchild(ptr noundef %17, ptr noundef %18)
  store ptr %19, ptr %13, align 8, !tbaa !9
  call void @llvm.lifetime.start.p0(i64 4, ptr %14) #9
  call void @llvm.lifetime.start.p0(i64 4, ptr %15) #9
  %20 = load ptr, ptr %13, align 8, !tbaa !9
  %21 = getelementptr inbounds nuw %struct.CType, ptr %20, i32 0, i32 1
  %22 = load i32, ptr %21, align 4, !tbaa !18
  store i32 %22, ptr %15, align 4, !tbaa !11
  call void @llvm.lifetime.start.p0(i64 4, ptr %16) #9
  %23 = load i32, ptr %12, align 4, !tbaa !11
  %24 = load i32, ptr %15, align 4, !tbaa !11
  %25 = mul i32 %23, %24
  %26 = load i32, ptr %9, align 4, !tbaa !11
  %27 = icmp ugt i32 %25, %26
  br i1 %27, label %28, label %31

28:                                               ; preds = %6
  %29 = load ptr, ptr %7, align 8, !tbaa !4
  %30 = load ptr, ptr %8, align 8, !tbaa !9
  call void @cconv_err_initov(ptr noundef %29, ptr noundef %30) #10
  unreachable

31:                                               ; preds = %6
  store i32 0, ptr %16, align 4, !tbaa !11
  store i32 0, ptr %14, align 4, !tbaa !11
  br label %32

32:                                               ; preds = %47, %31
  %33 = load i32, ptr %16, align 4, !tbaa !11
  %34 = load i32, ptr %12, align 4, !tbaa !11
  %35 = icmp ult i32 %33, %34
  br i1 %35, label %36, label %53

36:                                               ; preds = %32
  %37 = load ptr, ptr %7, align 8, !tbaa !4
  %38 = load ptr, ptr %13, align 8, !tbaa !9
  %39 = load ptr, ptr %10, align 8, !tbaa !21
  %40 = load i32, ptr %14, align 4, !tbaa !11
  %41 = zext i32 %40 to i64
  %42 = getelementptr inbounds nuw i8, ptr %39, i64 %41
  %43 = load ptr, ptr %11, align 8, !tbaa !43
  %44 = load i32, ptr %16, align 4, !tbaa !11
  %45 = zext i32 %44 to i64
  %46 = getelementptr inbounds nuw %union.TValue, ptr %43, i64 %45
  call void @lj_cconv_ct_tv(ptr noundef %37, ptr noundef %38, ptr noundef %42, ptr noundef %46, i32 noundef 0)
  br label %47

47:                                               ; preds = %36
  %48 = load i32, ptr %16, align 4, !tbaa !11
  %49 = add i32 %48, 1
  store i32 %49, ptr %16, align 4, !tbaa !11
  %50 = load i32, ptr %15, align 4, !tbaa !11
  %51 = load i32, ptr %14, align 4, !tbaa !11
  %52 = add i32 %51, %50
  store i32 %52, ptr %14, align 4, !tbaa !11
  br label %32, !llvm.loop !80

53:                                               ; preds = %32
  %54 = load i32, ptr %14, align 4, !tbaa !11
  %55 = load i32, ptr %15, align 4, !tbaa !11
  %56 = icmp eq i32 %54, %55
  br i1 %56, label %57, label %75

57:                                               ; preds = %53
  br label %58

58:                                               ; preds = %70, %57
  %59 = load i32, ptr %14, align 4, !tbaa !11
  %60 = load i32, ptr %9, align 4, !tbaa !11
  %61 = icmp ult i32 %59, %60
  br i1 %61, label %62, label %74

62:                                               ; preds = %58
  %63 = load ptr, ptr %10, align 8, !tbaa !21
  %64 = load i32, ptr %14, align 4, !tbaa !11
  %65 = zext i32 %64 to i64
  %66 = getelementptr inbounds nuw i8, ptr %63, i64 %65
  %67 = load ptr, ptr %10, align 8, !tbaa !21
  %68 = load i32, ptr %15, align 4, !tbaa !11
  %69 = zext i32 %68 to i64
  call void @llvm.memcpy.p0.p0.i64(ptr align 1 %66, ptr align 1 %67, i64 %69, i1 false)
  br label %70

70:                                               ; preds = %62
  %71 = load i32, ptr %15, align 4, !tbaa !11
  %72 = load i32, ptr %14, align 4, !tbaa !11
  %73 = add i32 %72, %71
  store i32 %73, ptr %14, align 4, !tbaa !11
  br label %58, !llvm.loop !81

74:                                               ; preds = %58
  br label %84

75:                                               ; preds = %53
  %76 = load ptr, ptr %10, align 8, !tbaa !21
  %77 = load i32, ptr %14, align 4, !tbaa !11
  %78 = zext i32 %77 to i64
  %79 = getelementptr inbounds nuw i8, ptr %76, i64 %78
  %80 = load i32, ptr %9, align 4, !tbaa !11
  %81 = load i32, ptr %14, align 4, !tbaa !11
  %82 = sub i32 %80, %81
  %83 = zext i32 %82 to i64
  call void @llvm.memset.p0.i64(ptr align 1 %79, i8 0, i64 %83, i1 false)
  br label %84

84:                                               ; preds = %75, %74
  call void @llvm.lifetime.end.p0(i64 4, ptr %16) #9
  call void @llvm.lifetime.end.p0(i64 4, ptr %15) #9
  call void @llvm.lifetime.end.p0(i64 4, ptr %14) #9
  call void @llvm.lifetime.end.p0(i64 8, ptr %13) #9
  ret void
}

; Function Attrs: nounwind uwtable
define hidden i32 @lj_cconv_multi_init(ptr noundef %0, ptr noundef %1, ptr noundef %2) #0 {
  %4 = alloca i32, align 4
  %5 = alloca ptr, align 8
  %6 = alloca ptr, align 8
  %7 = alloca ptr, align 8
  store ptr %0, ptr %5, align 8, !tbaa !4
  store ptr %1, ptr %6, align 8, !tbaa !9
  store ptr %2, ptr %7, align 8, !tbaa !43
  %8 = load ptr, ptr %6, align 8, !tbaa !9
  %9 = getelementptr inbounds nuw %struct.CType, ptr %8, i32 0, i32 0
  %10 = load i32, ptr %9, align 8, !tbaa !13
  %11 = and i32 %10, -67108864
  %12 = icmp eq i32 %11, 805306368
  br i1 %12, label %20, label %13

13:                                               ; preds = %3
  %14 = load ptr, ptr %6, align 8, !tbaa !9
  %15 = getelementptr inbounds nuw %struct.CType, ptr %14, i32 0, i32 0
  %16 = load i32, ptr %15, align 8, !tbaa !13
  %17 = lshr i32 %16, 28
  %18 = icmp eq i32 %17, 1
  br i1 %18, label %20, label %19

19:                                               ; preds = %13
  store i32 0, ptr %4, align 4
  br label %60

20:                                               ; preds = %13, %3
  %21 = load ptr, ptr %7, align 8, !tbaa !43
  %22 = load i64, ptr %21, align 8, !tbaa !23
  %23 = ashr i64 %22, 47
  %24 = trunc i64 %23 to i32
  %25 = icmp eq i32 %24, -12
  br i1 %25, label %38, label %26

26:                                               ; preds = %20
  %27 = load ptr, ptr %7, align 8, !tbaa !43
  %28 = load i64, ptr %27, align 8, !tbaa !23
  %29 = ashr i64 %28, 47
  %30 = trunc i64 %29 to i32
  %31 = icmp eq i32 %30, -5
  br i1 %31, label %32, label %39

32:                                               ; preds = %26
  %33 = load ptr, ptr %6, align 8, !tbaa !9
  %34 = getelementptr inbounds nuw %struct.CType, ptr %33, i32 0, i32 0
  %35 = load i32, ptr %34, align 8, !tbaa !13
  %36 = lshr i32 %35, 28
  %37 = icmp eq i32 %36, 1
  br i1 %37, label %39, label %38

38:                                               ; preds = %32, %20
  store i32 0, ptr %4, align 4
  br label %60

39:                                               ; preds = %32, %26
  %40 = load ptr, ptr %7, align 8, !tbaa !43
  %41 = load i64, ptr %40, align 8, !tbaa !23
  %42 = ashr i64 %41, 47
  %43 = trunc i64 %42 to i32
  %44 = icmp eq i32 %43, -11
  br i1 %44, label %45, label %59

45:                                               ; preds = %39
  %46 = load ptr, ptr %5, align 8, !tbaa !4
  %47 = load ptr, ptr %7, align 8, !tbaa !43
  %48 = getelementptr inbounds nuw %struct.GCRef, ptr %47, i32 0, i32 0
  %49 = load i64, ptr %48, align 8, !tbaa !23
  %50 = and i64 %49, 140737488355327
  %51 = inttoptr i64 %50 to ptr
  %52 = getelementptr inbounds nuw %struct.GCcdata, ptr %51, i32 0, i32 3
  %53 = load i16, ptr %52, align 2, !tbaa !23
  %54 = zext i16 %53 to i32
  %55 = call ptr @lj_ctype_rawref(ptr noundef %46, i32 noundef %54)
  %56 = load ptr, ptr %6, align 8, !tbaa !9
  %57 = icmp eq ptr %55, %56
  br i1 %57, label %58, label %59

58:                                               ; preds = %45
  store i32 0, ptr %4, align 4
  br label %60

59:                                               ; preds = %45, %39
  store i32 1, ptr %4, align 4
  br label %60

60:                                               ; preds = %59, %58, %38, %19
  %61 = load i32, ptr %4, align 4
  ret i32 %61
}

; Function Attrs: nounwind uwtable
define hidden void @lj_cconv_ct_init(ptr noundef %0, ptr noundef %1, i32 noundef %2, ptr noundef %3, ptr noundef %4, i32 noundef %5) #0 {
  %7 = alloca ptr, align 8
  %8 = alloca ptr, align 8
  %9 = alloca i32, align 4
  %10 = alloca ptr, align 8
  %11 = alloca ptr, align 8
  %12 = alloca i32, align 4
  store ptr %0, ptr %7, align 8, !tbaa !4
  store ptr %1, ptr %8, align 8, !tbaa !9
  store i32 %2, ptr %9, align 4, !tbaa !11
  store ptr %3, ptr %10, align 8, !tbaa !21
  store ptr %4, ptr %11, align 8, !tbaa !43
  store i32 %5, ptr %12, align 4, !tbaa !11
  %13 = load i32, ptr %12, align 4, !tbaa !11
  %14 = icmp eq i32 %13, 0
  br i1 %14, label %15, label %19

15:                                               ; preds = %6
  %16 = load ptr, ptr %10, align 8, !tbaa !21
  %17 = load i32, ptr %9, align 4, !tbaa !11
  %18 = zext i32 %17 to i64
  call void @llvm.memset.p0.i64(ptr align 1 %16, i8 0, i64 %18, i1 false)
  br label %65

19:                                               ; preds = %6
  %20 = load i32, ptr %12, align 4, !tbaa !11
  %21 = icmp eq i32 %20, 1
  br i1 %21, label %22, label %33

22:                                               ; preds = %19
  %23 = load ptr, ptr %7, align 8, !tbaa !4
  %24 = load ptr, ptr %8, align 8, !tbaa !9
  %25 = load ptr, ptr %11, align 8, !tbaa !43
  %26 = call i32 @lj_cconv_multi_init(ptr noundef %23, ptr noundef %24, ptr noundef %25)
  %27 = icmp ne i32 %26, 0
  br i1 %27, label %33, label %28

28:                                               ; preds = %22
  %29 = load ptr, ptr %7, align 8, !tbaa !4
  %30 = load ptr, ptr %8, align 8, !tbaa !9
  %31 = load ptr, ptr %10, align 8, !tbaa !21
  %32 = load ptr, ptr %11, align 8, !tbaa !43
  call void @lj_cconv_ct_tv(ptr noundef %29, ptr noundef %30, ptr noundef %31, ptr noundef %32, i32 noundef 0)
  br label %64

33:                                               ; preds = %22, %19
  %34 = load ptr, ptr %8, align 8, !tbaa !9
  %35 = getelementptr inbounds nuw %struct.CType, ptr %34, i32 0, i32 0
  %36 = load i32, ptr %35, align 8, !tbaa !13
  %37 = lshr i32 %36, 28
  %38 = icmp eq i32 %37, 3
  br i1 %38, label %39, label %46

39:                                               ; preds = %33
  %40 = load ptr, ptr %7, align 8, !tbaa !4
  %41 = load ptr, ptr %8, align 8, !tbaa !9
  %42 = load i32, ptr %9, align 4, !tbaa !11
  %43 = load ptr, ptr %10, align 8, !tbaa !21
  %44 = load ptr, ptr %11, align 8, !tbaa !43
  %45 = load i32, ptr %12, align 4, !tbaa !11
  call void @cconv_array_init(ptr noundef %40, ptr noundef %41, i32 noundef %42, ptr noundef %43, ptr noundef %44, i32 noundef %45)
  br label %63

46:                                               ; preds = %33
  %47 = load ptr, ptr %8, align 8, !tbaa !9
  %48 = getelementptr inbounds nuw %struct.CType, ptr %47, i32 0, i32 0
  %49 = load i32, ptr %48, align 8, !tbaa !13
  %50 = lshr i32 %49, 28
  %51 = icmp eq i32 %50, 1
  br i1 %51, label %52, label %59

52:                                               ; preds = %46
  %53 = load ptr, ptr %7, align 8, !tbaa !4
  %54 = load ptr, ptr %8, align 8, !tbaa !9
  %55 = load i32, ptr %9, align 4, !tbaa !11
  %56 = load ptr, ptr %10, align 8, !tbaa !21
  %57 = load ptr, ptr %11, align 8, !tbaa !43
  %58 = load i32, ptr %12, align 4, !tbaa !11
  call void @cconv_struct_init(ptr noundef %53, ptr noundef %54, i32 noundef %55, ptr noundef %56, ptr noundef %57, i32 noundef %58)
  br label %62

59:                                               ; preds = %46
  %60 = load ptr, ptr %7, align 8, !tbaa !4
  %61 = load ptr, ptr %8, align 8, !tbaa !9
  call void @cconv_err_initov(ptr noundef %60, ptr noundef %61) #10
  unreachable

62:                                               ; preds = %52
  br label %63

63:                                               ; preds = %62, %39
  br label %64

64:                                               ; preds = %63, %28
  br label %65

65:                                               ; preds = %64, %15
  ret void
}