; Function Attrs: nounwind uwtable
define hidden void @lj_cconv_ct_init(ptr noundef %0, ptr noundef %1, i32 noundef %2, ptr noundef %3, ptr noundef %4, i32 noundef %5) local_unnamed_addr #2 {
  %7 = alloca i32, align 4
  switch i32 %5, label %lj_cconv_multi_init.exit [
    i32 0, label %8
    i32 1, label %10
  ]

8:                                                ; preds = %6
  %9 = zext i32 %2 to i64
  tail call void @llvm.memset.p0.i64(ptr align 1 %3, i8 0, i64 %9, i1 false)
  br label %cconv_array_init.exit

10:                                               ; preds = %6
  %11 = load i32, ptr %1, align 8, !tbaa !17
  %12 = and i32 %11, -67108864
  %13 = icmp eq i32 %12, 805306368
  %.mask.i = and i32 %11, -268435456
  %14 = icmp eq i32 %.mask.i, 268435456
  %or.cond.i = or i1 %13, %14
  br i1 %or.cond.i, label %15, label %29

15:                                               ; preds = %10
  %16 = load i64, ptr %4, align 8, !tbaa !23
  %17 = ashr i64 %16, 47
  switch i64 %17, label %19 [
    i64 -12, label %29
    i64 -5, label %18
  ]

18:                                               ; preds = %15
  br i1 %14, label %19, label %29

19:                                               ; preds = %18, %15
  %.mask11.i = and i64 %16, -140737488355328
  %20 = icmp eq i64 %.mask11.i, -1548112371908608
  br i1 %20, label %21, label %lj_cconv_multi_init.exit

21:                                               ; preds = %19
  %22 = and i64 %16, 140737488355327
  %23 = inttoptr i64 %22 to ptr
  %24 = getelementptr inbounds nuw i8, ptr %23, i64 10
  %25 = load i16, ptr %24, align 2, !tbaa !23
  %26 = zext i16 %25 to i32
  %27 = tail call ptr @lj_ctype_rawref(ptr noundef %0, i32 noundef %26) #9
  %28 = icmp eq ptr %27, %1
  br i1 %28, label %29, label %lj_cconv_multi_init.exit

29:                                               ; preds = %10, %15, %18, %21
  tail call void @lj_cconv_ct_tv(ptr noundef %0, ptr noundef nonnull %1, ptr noundef %3, ptr noundef %4, i32 noundef 0)
  br label %cconv_array_init.exit

lj_cconv_multi_init.exit:                         ; preds = %21, %19, %6
  %30 = load i32, ptr %1, align 8, !tbaa !17
  %31 = lshr i32 %30, 28
  switch i32 %31, label %69 [
    i32 3, label %32
    i32 1, label %64
  ]

32:                                               ; preds = %lj_cconv_multi_init.exit
  %33 = load ptr, ptr %0, align 8, !tbaa !4
  br label %34

34:                                               ; preds = %34, %32
  %35 = phi i32 [ %30, %32 ], [ %39, %34 ]
  %36 = and i32 %35, 65535
  %37 = zext nneg i32 %36 to i64
  %38 = getelementptr inbounds nuw %struct.CType, ptr %33, i64 %37
  %39 = load i32, ptr %38, align 8, !tbaa !17
  %40 = icmp slt i32 %39, -1879048192
  br i1 %40, label %34, label %ctype_rawchild.exit.i, !llvm.loop !44

ctype_rawchild.exit.i:                            ; preds = %34
  %41 = getelementptr inbounds nuw i8, ptr %38, i64 4
  %42 = load i32, ptr %41, align 4, !tbaa !22
  %43 = mul i32 %42, %5
  %44 = icmp ugt i32 %43, %2
  br i1 %44, label %45, label %.preheader34.preheader.i

.preheader34.preheader.i:                         ; preds = %ctype_rawchild.exit.i
  %wide.trip.count.i = zext i32 %5 to i64
  br label %.preheader34.i

45:                                               ; preds = %ctype_rawchild.exit.i
  tail call fastcc void @cconv_err_initov(ptr noundef nonnull %0, ptr noundef nonnull %1) #10
  unreachable

.preheader34.i:                                   ; preds = %.preheader34.i, %.preheader34.preheader.i
  %indvars.iv.i = phi i64 [ 0, %.preheader34.preheader.i ], [ %indvars.iv.next.i, %.preheader34.i ]
  %.03235.i = phi i32 [ 0, %.preheader34.preheader.i ], [ %49, %.preheader34.i ]
  %46 = zext i32 %.03235.i to i64
  %47 = getelementptr inbounds nuw i8, ptr %3, i64 %46
  %48 = getelementptr inbounds nuw %union.TValue, ptr %4, i64 %indvars.iv.i
  tail call void @lj_cconv_ct_tv(ptr noundef nonnull %0, ptr noundef nonnull %38, ptr noundef %47, ptr noundef %48, i32 noundef 0)
  %indvars.iv.next.i = add nuw nsw i64 %indvars.iv.i, 1
  %49 = add i32 %.03235.i, %42
  %exitcond.not.i = icmp eq i64 %indvars.iv.next.i, %wide.trip.count.i
  br i1 %exitcond.not.i, label %50, label %.preheader34.i, !llvm.loop !65

50:                                               ; preds = %.preheader34.i
  %51 = icmp eq i32 %.03235.i, 0
  br i1 %51, label %.preheader.i, label %59

.preheader.i:                                     ; preds = %50
  %52 = icmp ult i32 %49, %2
  br i1 %52, label %.lr.ph.i, label %cconv_array_init.exit

.lr.ph.i:                                         ; preds = %.preheader.i
  %53 = zext i32 %42 to i64
  br label %54

54:                                               ; preds = %54, %.lr.ph.i
  %.137.i = phi i32 [ %49, %.lr.ph.i ], [ %57, %54 ]
  %55 = zext i32 %.137.i to i64
  %56 = getelementptr inbounds nuw i8, ptr %3, i64 %55
  tail call void @llvm.memcpy.p0.p0.i64(ptr align 1 %56, ptr align 1 %3, i64 %53, i1 false)
  %57 = add i32 %.137.i, %42
  %58 = icmp ult i32 %57, %2
  br i1 %58, label %54, label %cconv_array_init.exit, !llvm.loop !66

59:                                               ; preds = %50
  %60 = zext i32 %49 to i64
  %61 = getelementptr inbounds nuw i8, ptr %3, i64 %60
  %62 = sub i32 %2, %49
  %63 = zext i32 %62 to i64
  tail call void @llvm.memset.p0.i64(ptr align 1 %61, i8 0, i64 %63, i1 false)
  br label %cconv_array_init.exit

64:                                               ; preds = %lj_cconv_multi_init.exit
  call void @llvm.lifetime.start.p0(i64 4, ptr nonnull %7) #9
  store i32 0, ptr %7, align 4, !tbaa !24
  %65 = zext i32 %2 to i64
  tail call void @llvm.memset.p0.i64(ptr align 1 %3, i8 0, i64 %65, i1 false)
  call fastcc void @cconv_substruct_init(ptr noundef %0, ptr noundef nonnull %1, ptr noundef %3, ptr noundef %4, i32 noundef range(i32 1, 0) %5, ptr noundef %7)
  %66 = load i32, ptr %7, align 4, !tbaa !24
  %67 = icmp ult i32 %66, %5
  br i1 %67, label %68, label %cconv_struct_init.exit

68:                                               ; preds = %64
  tail call fastcc void @cconv_err_initov(ptr noundef %0, ptr noundef nonnull %1) #10
  unreachable

cconv_struct_init.exit:                           ; preds = %64
  call void @llvm.lifetime.end.p0(i64 4, ptr nonnull %7) #9
  br label %cconv_array_init.exit

69:                                               ; preds = %lj_cconv_multi_init.exit
  tail call fastcc void @cconv_err_initov(ptr noundef %0, ptr noundef nonnull %1) #10
  unreachable

cconv_array_init.exit:                            ; preds = %54, %59, %.preheader.i, %29, %cconv_struct_init.exit, %8
  ret void
}